; ModuleID = '24/371.c'
source_filename = "24/371.c"
target datalayout = "e-m:e-p270:32:32-p271:32:32-p272:64:64-i64:64-f80:128-n8:16:32:64-S128"
target triple = "x86_64-pc-linux-gnu"

@str2 = dso_local global [1000 x i8] zeroinitializer, align 16

; Function Attrs: noinline nounwind uwtable
define dso_local void @k(i8* %0) #0 {
  %2 = alloca i8*, align 8
  %3 = alloca [100 x [20 x i8]], align 16
  %4 = alloca i32, align 4
  %5 = alloca i32, align 4
  %6 = alloca i32, align 4
  %7 = alloca i32, align 4
  %8 = alloca i32, align 4
  %9 = alloca i32, align 4
  store i8* %0, i8** %2, align 8
  %10 = bitcast [100 x [20 x i8]]* %3 to i8*
  call void @llvm.memset.p0i8.i64(i8* align 16 %10, i8 0, i64 2000, i1 false)
  store i32 0, i32* %4, align 4
  store i32 0, i32* %7, align 4
  store i32 0, i32* %5, align 4
  br label %11

11:                                               ; preds = %84, %1
  %12 = load i8*, i8** %2, align 8
  %13 = load i32, i32* %5, align 4
  %14 = sext i32 %13 to i64
  %15 = getelementptr inbounds i8, i8* %12, i64 %14
  %16 = load i8, i8* %15, align 1
  %17 = sext i8 %16 to i32
  %18 = icmp ne i32 %17, 0
  br i1 %18, label %19, label %87

19:                                               ; preds = %11
  %20 = load i32, i32* %5, align 4
  store i32 %20, i32* %4, align 4
  store i32 0, i32* %6, align 4
  br label %21

21:                                               ; preds = %75, %19
  %22 = load i8*, i8** %2, align 8
  %23 = load i32, i32* %4, align 4
  %24 = sext i32 %23 to i64
  %25 = getelementptr inbounds i8, i8* %22, i64 %24
  %26 = load i8, i8* %25, align 1
  %27 = sext i8 %26 to i32
  %28 = icmp sge i32 %27, 97
  br i1 %28, label %29, label %37

29:                                               ; preds = %21
  %30 = load i8*, i8** %2, align 8
  %31 = load i32, i32* %4, align 4
  %32 = sext i32 %31 to i64
  %33 = getelementptr inbounds i8, i8* %30, i64 %32
  %34 = load i8, i8* %33, align 1
  %35 = sext i8 %34 to i32
  %36 = icmp sle i32 %35, 122
  br i1 %36, label %61, label %37

37:                                               ; preds = %29, %21
  %38 = load i8*, i8** %2, align 8
  %39 = load i32, i32* %4, align 4
  %40 = sext i32 %39 to i64
  %41 = getelementptr inbounds i8, i8* %38, i64 %40
  %42 = load i8, i8* %41, align 1
  %43 = sext i8 %42 to i32
  %44 = icmp sge i32 %43, 65
  br i1 %44, label %45, label %53

45:                                               ; preds = %37
  %46 = load i8*, i8** %2, align 8
  %47 = load i32, i32* %4, align 4
  %48 = sext i32 %47 to i64
  %49 = getelementptr inbounds i8, i8* %46, i64 %48
  %50 = load i8, i8* %49, align 1
  %51 = sext i8 %50 to i32
  %52 = icmp sle i32 %51, 90
  br i1 %52, label %61, label %53

53:                                               ; preds = %45, %37
  %54 = load i8*, i8** %2, align 8
  %55 = load i32, i32* %4, align 4
  %56 = sext i32 %55 to i64
  %57 = getelementptr inbounds i8, i8* %54, i64 %56
  %58 = load i8, i8* %57, align 1
  %59 = sext i8 %58 to i32
  %60 = icmp eq i32 %59, 39
  br label %61

61:                                               ; preds = %53, %45, %29
  %62 = phi i1 [ true, %45 ], [ true, %29 ], [ %60, %53 ]
  br i1 %62, label %63, label %80

63:                                               ; preds = %61
  %64 = load i8*, i8** %2, align 8
  %65 = load i32, i32* %4, align 4
  %66 = sext i32 %65 to i64
  %67 = getelementptr inbounds i8, i8* %64, i64 %66
  %68 = load i8, i8* %67, align 1
  %69 = load i32, i32* %7, align 4
  %70 = sext i32 %69 to i64
  %71 = getelementptr inbounds [100 x [20 x i8]], [100 x [20 x i8]]* %3, i64 0, i64 %70
  %72 = load i32, i32* %6, align 4
  %73 = sext i32 %72 to i64
  %74 = getelementptr inbounds [20 x i8], [20 x i8]* %71, i64 0, i64 %73
  store i8 %68, i8* %74, align 1
  br label %75

75:                                               ; preds = %63
  %76 = load i32, i32* %4, align 4
  %77 = add nsw i32 %76, 1
  store i32 %77, i32* %4, align 4
  %78 = load i32, i32* %6, align 4
  %79 = add nsw i32 %78, 1
  store i32 %79, i32* %6, align 4
  br label %21

80:                                               ; preds = %61
  %81 = load i32, i32* %4, align 4
  store i32 %81, i32* %5, align 4
  %82 = load i32, i32* %7, align 4
  %83 = add nsw i32 %82, 1
  store i32 %83, i32* %7, align 4
  br label %84

84:                                               ; preds = %80
  %85 = load i32, i32* %5, align 4
  %86 = add nsw i32 %85, 1
  store i32 %86, i32* %5, align 4
  br label %11

87:                                               ; preds = %11
  store i32 0, i32* %4, align 4
  store i32 0, i32* %9, align 4
  br label %88

88:                                               ; preds = %107, %87
  %89 = load i32, i32* %4, align 4
  %90 = load i32, i32* %7, align 4
  %91 = icmp slt i32 %89, %90
  br i1 %91, label %92, label %110

92:                                               ; preds = %88
  %93 = load i32, i32* %9, align 4
  %94 = sext i32 %93 to i64
  %95 = getelementptr inbounds [100 x [20 x i8]], [100 x [20 x i8]]* %3, i64 0, i64 %94
  %96 = getelementptr inbounds [20 x i8], [20 x i8]* %95, i64 0, i64 0
  %97 = call i64 @strlen(i8* %96) #5
  %98 = load i32, i32* %4, align 4
  %99 = sext i32 %98 to i64
  %100 = getelementptr inbounds [100 x [20 x i8]], [100 x [20 x i8]]* %3, i64 0, i64 %99
  %101 = getelementptr inbounds [20 x i8], [20 x i8]* %100, i64 0, i64 0
  %102 = call i64 @strlen(i8* %101) #5
  %103 = icmp ugt i64 %97, %102
  br i1 %103, label %104, label %106

104:                                              ; preds = %92
  %105 = load i32, i32* %4, align 4
  store i32 %105, i32* %9, align 4
  br label %106

106:                                              ; preds = %104, %92
  br label %107

107:                                              ; preds = %106
  %108 = load i32, i32* %4, align 4
  %109 = add nsw i32 %108, 1
  store i32 %109, i32* %4, align 4
  br label %88

110:                                              ; preds = %88
  %111 = load i32, i32* %9, align 4
  %112 = sext i32 %111 to i64
  %113 = getelementptr inbounds [100 x [20 x i8]], [100 x [20 x i8]]* %3, i64 0, i64 %112
  %114 = getelementptr inbounds [20 x i8], [20 x i8]* %113, i64 0, i64 0
  %115 = call i8* @strcpy(i8* getelementptr inbounds ([1000 x i8], [1000 x i8]* @str2, i64 0, i64 0), i8* %114) #6
  store i32 0, i32* %4, align 4
  store i32 0, i32* %8, align 4
  br label %116

116:                                              ; preds = %135, %110
  %117 = load i32, i32* %4, align 4
  %118 = load i32, i32* %7, align 4
  %119 = icmp slt i32 %117, %118
  br i1 %119, label %120, label %138

120:                                              ; preds = %116
  %121 = load i32, i32* %8, align 4
  %122 = sext i32 %121 to i64
  %123 = getelementptr inbounds [100 x [20 x i8]], [100 x [20 x i8]]* %3, i64 0, i64 %122
  %124 = getelementptr inbounds [20 x i8], [20 x i8]* %123, i64 0, i64 0
  %125 = call i64 @strlen(i8* %124) #5
  %126 = load i32, i32* %4, align 4
  %127 = sext i32 %126 to i64
  %128 = getelementptr inbounds [100 x [20 x i8]], [100 x [20 x i8]]* %3, i64 0, i64 %127
  %129 = getelementptr inbounds [20 x i8], [20 x i8]* %128, i64 0, i64 0
  %130 = call i64 @strlen(i8* %129) #5
  %131 = icmp ult i64 %125, %130
  br i1 %131, label %132, label %134

132:                                              ; preds = %120
  %133 = load i32, i32* %4, align 4
  store i32 %133, i32* %8, align 4
  br label %134

134:                                              ; preds = %132, %120
  br label %135

135:                                              ; preds = %134
  %136 = load i32, i32* %4, align 4
  %137 = add nsw i32 %136, 1
  store i32 %137, i32* %4, align 4
  br label %116

138:                                              ; preds = %116
  %139 = load i8*, i8** %2, align 8
  %140 = load i32, i32* %8, align 4
  %141 = sext i32 %140 to i64
  %142 = getelementptr inbounds [100 x [20 x i8]], [100 x [20 x i8]]* %3, i64 0, i64 %141
  %143 = getelementptr inbounds [20 x i8], [20 x i8]* %142, i64 0, i64 0
  %144 = call i8* @strcpy(i8* %139, i8* %143) #6
  ret void
}

; Function Attrs: argmemonly nounwind willreturn
declare void @llvm.memset.p0i8.i64(i8* nocapture writeonly, i8, i64, i1 immarg) #1

; Function Attrs: nounwind readonly
declare dso_local i64 @strlen(i8*) #2

; Function Attrs: nounwind
declare dso_local i8* @strcpy(i8*, i8*) #3

; Function Attrs: noinline nounwind uwtable
define dso_local i32 @main() #0 {
  %1 = alloca i32, align 4
  %2 = alloca [1000 x i8], align 16
  store i32 0, i32* %1, align 4
  %3 = bitcast [1000 x i8]* %2 to i8*
  call void @llvm.memset.p0i8.i64(i8* align 16 %3, i8 0, i64 1000, i1 false)
  %4 = getelementptr inbounds [1000 x i8], [1000 x i8]* %2, i64 0, i64 0
  %5 = call i32 (i8*, ...) bitcast (i32 (...)* @gets to i32 (i8*, ...)*)(i8* %4)
  %6 = getelementptr inbounds [1000 x i8], [1000 x i8]* %2, i64 0, i64 0
  call void @k(i8* %6)
  %7 = getelementptr inbounds [1000 x i8], [1000 x i8]* %2, i64 0, i64 0
  %8 = call i32 @puts(i8* %7)
  %9 = call i32 @puts(i8* getelementptr inbounds ([1000 x i8], [1000 x i8]* @str2, i64 0, i64 0))
  ret i32 0
}

declare dso_local i32 @gets(...) #4

declare dso_local i32 @puts(i8*) #4


!llvm.module.flags = !{!0}
!llvm.ident = !{!1}

!0 = !{i32 1, !"wchar_size", i32 4}
!1 = !{!"clang version 10.0.0-4ubuntu1 "}
